target datalayout = "e-m:e-p270:32:32-p271:32:32-p272:64:64-i64:64-i128:128-f80:128-n8:16:32:64-S128"
target triple = "x86_64-pc-linux-gnu"

%struct._cms_curve_struct = type { ptr, i32, ptr, ptr, ptr, i32, ptr }

; Function Attrs: nounwind uwtable
define hidden i32 @cmsIsToneCurveLinear(ptr noundef %0) #0 {
  %2 = alloca i32, align 4
  %3 = alloca ptr, align 8
  %4 = alloca i32, align 4
  %5 = alloca i32, align 4
  store ptr %0, ptr %3, align 8
  store i32 0, ptr %4, align 4
  br label %6

6:                                                ; preds = %34, %1
  %7 = load i32, ptr %4, align 4
  %8 = load ptr, ptr %3, align 8
  %9 = getelementptr inbounds %struct._cms_curve_struct, ptr %8, i32 0, i32 5
  %10 = load i32, ptr %9, align 8
  %11 = icmp slt i32 %7, %10
  br i1 %11, label %12, label %37

12:                                               ; preds = %6
  %13 = load ptr, ptr %3, align 8
  %14 = getelementptr inbounds %struct._cms_curve_struct, ptr %13, i32 0, i32 6
  %15 = load ptr, ptr %14, align 8
  %16 = load i32, ptr %4, align 4
  %17 = sext i32 %16 to i64
  %18 = getelementptr inbounds i16, ptr %15, i64 %17
  %19 = load i16, ptr %18, align 2
  %20 = zext i16 %19 to i32
  %21 = load i32, ptr %4, align 4
  %22 = sitofp i32 %21 to double
  %23 = load ptr, ptr %3, align 8
  %24 = getelementptr inbounds %struct._cms_curve_struct, ptr %23, i32 0, i32 5
  %25 = load i32, ptr %24, align 8
  %26 = call zeroext i16 @_cmsQuantizeVal(double noundef %22, i32 noundef %25)
  %27 = zext i16 %26 to i32
  %28 = sub nsw i32 %20, %27
  %29 = call i32 @llvm.abs.i32(i32 %28, i1 true)
  store i32 %29, ptr %5, align 4
  %30 = load i32, ptr %5, align 4
  %31 = icmp sgt i32 %30, 15
  br i1 %31, label %32, label %33

32:                                               ; preds = %12
  store i32 0, ptr %2, align 4
  br label %38

33:                                               ; preds = %12
  br label %34

34:                                               ; preds = %33
  %35 = load i32, ptr %4, align 4
  %36 = add nsw i32 %35, 1
  store i32 %36, ptr %4, align 4
  br label %6, !llvm.loop !23

37:                                               ; preds = %6
  store i32 1, ptr %2, align 4
  br label %38

38:                                               ; preds = %37, %32
  %39 = load i32, ptr %2, align 4
  ret i32 %39
}