; Function Attrs: nounwind uwtable
define hidden range(i32 0, 2) i32 @cmsIsToneCurveLinear(ptr nocapture noundef readonly %0) local_unnamed_addr #0 {
  %2 = getelementptr inbounds i8, ptr %0, i64 48
  %3 = getelementptr inbounds i8, ptr %0, i64 40
  %4 = load i32, ptr %3, align 8
  %5 = icmp sgt i32 %4, 0
  br i1 %5, label %.lr.ph, label %._crit_edge

6:                                                ; preds = %.lr.ph
  %indvars.iv.next = add nuw nsw i64 %indvars.iv, 1
  %7 = load i32, ptr %3, align 8
  %8 = sext i32 %7 to i64
  %9 = icmp slt i64 %indvars.iv.next, %8
  br i1 %9, label %.lr.ph, label %._crit_edge, !llvm.loop !20

.lr.ph:                                           ; preds = %1, %6
  %indvars.iv = phi i64 [ %indvars.iv.next, %6 ], [ 0, %1 ]
  %10 = phi i32 [ %7, %6 ], [ %4, %1 ]
  %11 = load ptr, ptr %2, align 8
  %12 = getelementptr inbounds i16, ptr %11, i64 %indvars.iv
  %13 = load i16, ptr %12, align 2
  %14 = zext i16 %13 to i32
  %15 = trunc nuw nsw i64 %indvars.iv to i32
  %16 = uitofp nneg i32 %15 to double
  %17 = tail call zeroext i16 @_cmsQuantizeVal(double noundef %16, i32 noundef %10) #13
  %18 = zext i16 %17 to i32
  %19 = sub nsw i32 %14, %18
  %20 = tail call i32 @llvm.abs.i32(i32 %19, i1 true)
  %21 = icmp ugt i32 %20, 15
  br i1 %21, label %._crit_edge, label %6

._crit_edge:                                      ; preds = %.lr.ph, %6, %1
  %.0 = phi i32 [ 1, %1 ], [ 1, %6 ], [ 0, %.lr.ph ]
  ret i32 %.0
}